target datalayout = "e-m:e-p270:32:32-p271:32:32-p272:64:64-i64:64-i128:128-f80:128-n8:16:32:64-S128"
target triple = "x86_64-pc-linux-gnu"

%"struct.Minisat::Lit" = type { i32 }
%"struct.Minisat::SimpSolver::ClauseDeleted" = type { ptr }
%"struct.Minisat::SimpSolver::ElimLt" = type { ptr }
%"class.Minisat::vec.1" = type { ptr, i32, i32 }
%"class.Minisat::SimpSolver" = type <{ %"class.Minisat::Solver.base", [3 x i8], i32, i32, i32, double, i8, i8, i8, i8, i32, i32, i32, i32, i8, [3 x i8], i32, [4 x i8], %"class.Minisat::vec.2", %"class.Minisat::VMap.11", %"class.Minisat::OccLists.26", %"class.Minisat::LMap", %"class.Minisat::Heap.32", %"class.Minisat::Queue", %"class.Minisat::VMap.11", %"class.Minisat::vec.3", %"class.Minisat::VMap.11", i32, i32, i32, [4 x i8] }>
%"class.Minisat::Solver.base" = type <{ ptr, %"class.Minisat::vec", %"class.Minisat::LSet", i32, [4 x i8], double, double, double, double, i8, [3 x i8], i32, i32, i8, i8, [2 x i8], double, i32, i32, double, double, double, i32, [4 x i8], double, i64, i64, i64, i64, i64, i64, i64, i64, i64, i64, i64, i64, i64, %"class.Minisat::vec.2", %"class.Minisat::vec.2", %"class.Minisat::vec.1", %"class.Minisat::vec.3", %"class.Minisat::vec.1", %"class.Minisat::VMap", %"class.Minisat::VMap.7", %"class.Minisat::VMap.11", %"class.Minisat::VMap.7", %"class.Minisat::VMap.11", %"class.Minisat::VMap.15", %"class.Minisat::OccLists", %"class.Minisat::Heap", i8, [7 x i8], double, double, i32, i32, i64, double, i8, [3 x i8], i32, %"class.Minisat::ClauseAllocator", %"class.Minisat::vec.3", %"class.Minisat::vec.3", %"class.Minisat::VMap.11", %"class.Minisat::vec.25", %"class.Minisat::vec.1", %"class.Minisat::vec.1", double, double, i32, [4 x i8], i64, i64, i8 }>
%"class.Minisat::vec" = type { ptr, i32, i32 }
%"class.Minisat::LSet" = type { %"class.Minisat::IntSet" }
%"class.Minisat::IntSet" = type { %"class.Minisat::IntMap", %"class.Minisat::vec.1" }
%"class.Minisat::IntMap" = type <{ %"class.Minisat::vec.0", %"struct.Minisat::MkIndexLit", [7 x i8] }>
%"class.Minisat::vec.0" = type { ptr, i32, i32 }
%"struct.Minisat::MkIndexLit" = type { i8 }
%"class.Minisat::VMap" = type { %"class.Minisat::IntMap.base.6", [7 x i8] }
%"class.Minisat::IntMap.base.6" = type <{ %"class.Minisat::vec.5", %"struct.Minisat::MkIndexDefault" }>
%"class.Minisat::vec.5" = type { ptr, i32, i32 }
%"struct.Minisat::MkIndexDefault" = type { i8 }
%"class.Minisat::VMap.7" = type { %"class.Minisat::IntMap.base.9", [7 x i8] }
%"class.Minisat::IntMap.base.9" = type <{ %"class.Minisat::vec", %"struct.Minisat::MkIndexDefault" }>
%"class.Minisat::VMap.15" = type { %"class.Minisat::IntMap.base.18", [7 x i8] }
%"class.Minisat::IntMap.base.18" = type <{ %"class.Minisat::vec.17", %"struct.Minisat::MkIndexDefault" }>
%"class.Minisat::vec.17" = type { ptr, i32, i32 }
%"class.Minisat::OccLists" = type { %"class.Minisat::IntMap.20", %"class.Minisat::IntMap", %"class.Minisat::vec.1", %"struct.Minisat::Solver::WatcherDeleted" }
%"class.Minisat::IntMap.20" = type <{ %"class.Minisat::vec.21", %"struct.Minisat::MkIndexLit", [7 x i8] }>
%"class.Minisat::vec.21" = type { ptr, i32, i32 }
%"struct.Minisat::Solver::WatcherDeleted" = type { ptr }
%"class.Minisat::Heap" = type { %"class.Minisat::vec.3", %"class.Minisat::IntMap.23", %"struct.Minisat::Solver::VarOrderLt" }
%"class.Minisat::IntMap.23" = type <{ %"class.Minisat::vec.3", %"struct.Minisat::MkIndexDefault", [7 x i8] }>
%"struct.Minisat::Solver::VarOrderLt" = type { ptr }
%"class.Minisat::ClauseAllocator" = type { %"class.Minisat::RegionAllocator", i8, [7 x i8] }
%"class.Minisat::RegionAllocator" = type <{ ptr, i32, i32, i32, [4 x i8] }>
%"class.Minisat::vec.25" = type { ptr, i32, i32 }
%"class.Minisat::vec.2" = type { ptr, i32, i32 }
%"class.Minisat::OccLists.26" = type { %"class.Minisat::IntMap.27", %"class.Minisat::IntMap.12", %"class.Minisat::vec.3", %"struct.Minisat::SimpSolver::ClauseDeleted" }
%"class.Minisat::IntMap.27" = type <{ %"class.Minisat::vec.28", %"struct.Minisat::MkIndexDefault", [7 x i8] }>
%"class.Minisat::vec.28" = type { ptr, i32, i32 }
%"class.Minisat::IntMap.12" = type <{ %"class.Minisat::vec.0", %"struct.Minisat::MkIndexDefault", [7 x i8] }>
%"class.Minisat::LMap" = type { %"class.Minisat::IntMap.base.31", [7 x i8] }
%"class.Minisat::IntMap.base.31" = type <{ %"class.Minisat::vec.3", %"struct.Minisat::MkIndexLit" }>
%"class.Minisat::Heap.32" = type { %"class.Minisat::vec.3", %"class.Minisat::IntMap.23", %"struct.Minisat::SimpSolver::ElimLt" }
%"class.Minisat::Queue" = type { %"class.Minisat::vec.2", i32, i32 }
%"class.Minisat::vec.3" = type { ptr, i32, i32 }
%"class.Minisat::VMap.11" = type { %"class.Minisat::IntMap.base.13", [7 x i8] }
%"class.Minisat::IntMap.base.13" = type <{ %"class.Minisat::vec.0", %"struct.Minisat::MkIndexDefault" }>

; Function Attrs: mustprogress nounwind uwtable
define linkonce_odr noundef i32 @_ZN7Minisat3varENS_3LitE(i32 %0) #1 comdat {
  %2 = alloca %"struct.Minisat::Lit", align 4
  %3 = getelementptr inbounds %"struct.Minisat::Lit", ptr %2, i32 0, i32 0
  store i32 %0, ptr %3, align 4
  %4 = getelementptr inbounds %"struct.Minisat::Lit", ptr %2, i32 0, i32 0
  %5 = load i32, ptr %4, align 4
  %6 = ashr i32 %5, 1
  ret i32 %6
}

; Function Attrs: mustprogress uwtable
define void @_ZN7Minisat10SimpSolver10releaseVarENS_3LitE(ptr noundef nonnull align 8 dereferenceable(1196) %0, i32 %1) #2 align 2 {
  %3 = alloca %"struct.Minisat::Lit", align 4
  %4 = alloca ptr, align 8
  %5 = alloca %"struct.Minisat::Lit", align 4
  %6 = alloca %"struct.Minisat::Lit", align 4
  %7 = alloca %"struct.Minisat::Lit", align 4
  %8 = getelementptr inbounds %"struct.Minisat::Lit", ptr %3, i32 0, i32 0
  store i32 %1, ptr %8, align 4
  store ptr %0, ptr %4, align 8
  %9 = load ptr, ptr %4, align 8
  %10 = getelementptr inbounds %"class.Minisat::SimpSolver", ptr %9, i32 0, i32 14
  %11 = load i8, ptr %10, align 4
  %12 = trunc i8 %11 to i1
  br i1 %12, label %23, label %13

13:                                               ; preds = %2
  call void @llvm.memcpy.p0.p0.i64(ptr align 4 %5, ptr align 4 %3, i64 4, i1 false)
  %14 = getelementptr inbounds %"struct.Minisat::Lit", ptr %5, i32 0, i32 0
  %15 = load i32, ptr %14, align 4
  %16 = call noundef i32 @_ZN7Minisat3varENS_3LitE(i32 %15)
  %17 = getelementptr inbounds %"class.Minisat::SimpSolver", ptr %9, i32 0, i32 16
  %18 = load i32, ptr %17, align 8
  %19 = icmp sge i32 %16, %18
  br i1 %19, label %20, label %23

20:                                               ; preds = %13
  call void @llvm.memcpy.p0.p0.i64(ptr align 4 %6, ptr align 4 %3, i64 4, i1 false)
  %21 = getelementptr inbounds %"struct.Minisat::Lit", ptr %6, i32 0, i32 0
  %22 = load i32, ptr %21, align 4
  call void @_ZN7Minisat6Solver10releaseVarENS_3LitE(ptr noundef nonnull align 8 dereferenceable(857) %9, i32 %22)
  br label %27

23:                                               ; preds = %13, %2
  call void @llvm.memcpy.p0.p0.i64(ptr align 4 %7, ptr align 4 %3, i64 4, i1 false)
  %24 = getelementptr inbounds %"struct.Minisat::Lit", ptr %7, i32 0, i32 0
  %25 = load i32, ptr %24, align 4
  %26 = call noundef zeroext i1 @_ZN7Minisat6Solver9addClauseENS_3LitE(ptr noundef nonnull align 8 dereferenceable(857) %9, i32 %25)
  br label %27

27:                                               ; preds = %23, %20
  ret void
}