; Function Attrs: mustprogress uwtable
define void @_ZN7Minisat10SimpSolver10releaseVarENS_3LitE(ptr noundef nonnull align 8 dereferenceable(1196) %0, i32 %1) local_unnamed_addr #2 align 2 {
  %3 = getelementptr inbounds i8, ptr %0, i64 900
  %4 = load i8, ptr %3, align 4
  %5 = and i8 %4, 1
  %.not = icmp eq i8 %5, 0
  br i1 %.not, label %6, label %11

6:                                                ; preds = %2
  %7 = ashr i32 %1, 1
  %8 = getelementptr inbounds i8, ptr %0, i64 904
  %9 = load i32, ptr %8, align 8
  %.not6 = icmp slt i32 %7, %9
  br i1 %.not6, label %11, label %10

10:                                               ; preds = %6
  tail call void @_ZN7Minisat6Solver10releaseVarENS_3LitE(ptr noundef nonnull align 8 dereferenceable(857) %0, i32 %1)
  br label %13

11:                                               ; preds = %6, %2
  %12 = tail call noundef zeroext i1 @_ZN7Minisat6Solver9addClauseENS_3LitE(ptr noundef nonnull align 8 dereferenceable(857) %0, i32 %1)
  br label %13

13:                                               ; preds = %11, %10
  ret void
}